; Function Attrs: mustprogress nofree norecurse nosync nounwind willreturn memory(argmem: read) uwtable
define range(i32 0, 2) i32 @uriMemoryManagerIsComplete(ptr noundef readonly captures(address_is_null) %0) local_unnamed_addr #0 {
  %.not = icmp eq ptr %0, null
  br i1 %.not, label %18, label %2

2:                                                ; preds = %1
  %3 = load ptr, ptr %0, align 8, !tbaa !3
  %.not6 = icmp eq ptr %3, null
  br i1 %.not6, label %18, label %4

4:                                                ; preds = %2
  %5 = getelementptr inbounds nuw i8, ptr %0, i64 8
  %6 = load ptr, ptr %5, align 8, !tbaa !8
  %.not7 = icmp eq ptr %6, null
  br i1 %.not7, label %18, label %7

7:                                                ; preds = %4
  %8 = getelementptr inbounds nuw i8, ptr %0, i64 16
  %9 = load ptr, ptr %8, align 8, !tbaa !9
  %.not8 = icmp eq ptr %9, null
  br i1 %.not8, label %18, label %10

10:                                               ; preds = %7
  %11 = getelementptr inbounds nuw i8, ptr %0, i64 24
  %12 = load ptr, ptr %11, align 8, !tbaa !10
  %.not9 = icmp eq ptr %12, null
  br i1 %.not9, label %18, label %13

13:                                               ; preds = %10
  %14 = getelementptr inbounds nuw i8, ptr %0, i64 32
  %15 = load ptr, ptr %14, align 8, !tbaa !11
  %16 = icmp ne ptr %15, null
  %17 = zext i1 %16 to i32
  br label %18

18:                                               ; preds = %13, %10, %7, %4, %2, %1
  %19 = phi i32 [ 0, %10 ], [ 0, %7 ], [ 0, %4 ], [ 0, %2 ], [ 0, %1 ], [ %17, %13 ]
  ret i32 %19
}